; Function Attrs: mustprogress uwtable
define noundef i64 @_ZN11duckdb_zstd20ZSTD_decompressBoundEPKvm(ptr noundef %0, i64 noundef %1) local_unnamed_addr #0 {
  %3 = alloca %"struct.duckdb_zstd::ZSTD_frameSizeInfo", align 8
  %4 = getelementptr inbounds nuw i8, ptr %3, i64 8
  %5 = getelementptr inbounds nuw i8, ptr %3, i64 16
  br label %6

6:                                                ; preds = %7, %2
  %.019 = phi i64 [ %1, %2 ], [ %13, %7 ]
  %.017 = phi i64 [ 0, %2 ], [ %14, %7 ]
  %.015 = phi ptr [ %0, %2 ], [ %12, %7 ]
  %.not = icmp eq i64 %.019, 0
  br i1 %.not, label %15, label %7

7:                                                ; preds = %6
  call void @llvm.lifetime.start.p0(i64 24, ptr nonnull %3) #17
  call fastcc void @_ZN11duckdb_zstdL22ZSTD_findFrameSizeInfoEPKvmNS_13ZSTD_format_eE(ptr dead_on_unwind noalias writable align 8 %3, ptr noundef %.015, i64 noundef %.019, i32 noundef 0)
  %8 = load i64, ptr %4, align 8, !tbaa !69
  %9 = load i64, ptr %5, align 8, !tbaa !71
  %10 = icmp ult i64 %8, -119
  %11 = icmp ne i64 %9, -2
  %or.cond.not = select i1 %10, i1 %11, i1 false
  %12 = getelementptr inbounds nuw i8, ptr %.015, i64 %8
  %13 = sub i64 %.019, %8
  %14 = add i64 %9, %.017
  call void @llvm.lifetime.end.p0(i64 24, ptr nonnull %3) #17
  br i1 %or.cond.not, label %6, label %15, !llvm.loop !72

15:                                               ; preds = %6, %7
  %.2 = phi i64 [ -2, %7 ], [ %.017, %6 ]
  ret i64 %.2
}